; Function Attrs: nounwind uwtable
define ptr @l_Lean_Elab_Tactic_BVDecide_Frontend_Normalize_canonicalizeWithSharing___lambda__4___boxed(ptr noundef %0, ptr noundef %1, ptr noundef %2, ptr noundef %3, ptr noundef %4, ptr noundef %5, ptr noundef %6, ptr noundef %7, ptr noundef %8, ptr noundef %9, ptr noundef %10, ptr noundef %11, ptr noundef %12) local_unnamed_addr #0 {
  %14 = tail call ptr @l_Lean_Elab_Tactic_BVDecide_Frontend_Normalize_canonicalizeWithSharing___lambda__4(ptr noundef %0, ptr noundef %1, ptr noundef %2, ptr noundef %3, ptr poison, ptr poison, ptr poison, ptr poison, ptr noundef %8, ptr noundef %9, ptr noundef %10, ptr noundef %11, ptr noundef %12)
  %15 = ptrtoint ptr %7 to i64
  %16 = and i64 %15, 1
  %.not = icmp eq i64 %16, 0
  br i1 %.not, label %17, label %lean_dec.exit20

17:                                               ; preds = %13
  %18 = load i32, ptr %7, align 4, !tbaa !8
  %19 = icmp sgt i32 %18, 1
  br i1 %19, label %20, label %22, !prof !11

20:                                               ; preds = %17
  %21 = add nsw i32 %18, -1
  store i32 %21, ptr %7, align 4, !tbaa !8
  br label %lean_dec.exit20

22:                                               ; preds = %17
  %.not.i = icmp eq i32 %18, 0
  br i1 %.not.i, label %lean_dec.exit20, label %23

23:                                               ; preds = %22
  tail call void @lean_dec_ref_cold(ptr noundef nonnull %7) #5
  br label %lean_dec.exit20

lean_dec.exit20:                                  ; preds = %23, %22, %20, %13
  %24 = ptrtoint ptr %6 to i64
  %25 = and i64 %24, 1
  %.not27 = icmp eq i64 %25, 0
  br i1 %.not27, label %26, label %lean_dec.exit19

26:                                               ; preds = %lean_dec.exit20
  %27 = load i32, ptr %6, align 4, !tbaa !8
  %28 = icmp sgt i32 %27, 1
  br i1 %28, label %29, label %31, !prof !11

29:                                               ; preds = %26
  %30 = add nsw i32 %27, -1
  store i32 %30, ptr %6, align 4, !tbaa !8
  br label %lean_dec.exit19

31:                                               ; preds = %26
  %.not.i21 = icmp eq i32 %27, 0
  br i1 %.not.i21, label %lean_dec.exit19, label %32

32:                                               ; preds = %31
  tail call void @lean_dec_ref_cold(ptr noundef nonnull %6) #5
  br label %lean_dec.exit19

lean_dec.exit19:                                  ; preds = %32, %31, %29, %lean_dec.exit20
  %33 = ptrtoint ptr %5 to i64
  %34 = and i64 %33, 1
  %.not28 = icmp eq i64 %34, 0
  br i1 %.not28, label %35, label %lean_dec.exit18

35:                                               ; preds = %lean_dec.exit19
  %36 = load i32, ptr %5, align 4, !tbaa !8
  %37 = icmp sgt i32 %36, 1
  br i1 %37, label %38, label %40, !prof !11

38:                                               ; preds = %35
  %39 = add nsw i32 %36, -1
  store i32 %39, ptr %5, align 4, !tbaa !8
  br label %lean_dec.exit18

40:                                               ; preds = %35
  %.not.i23 = icmp eq i32 %36, 0
  br i1 %.not.i23, label %lean_dec.exit18, label %41

41:                                               ; preds = %40
  tail call void @lean_dec_ref_cold(ptr noundef nonnull %5) #5
  br label %lean_dec.exit18

lean_dec.exit18:                                  ; preds = %41, %40, %38, %lean_dec.exit19
  %42 = ptrtoint ptr %4 to i64
  %43 = and i64 %42, 1
  %.not29 = icmp eq i64 %43, 0
  br i1 %.not29, label %44, label %lean_dec.exit

44:                                               ; preds = %lean_dec.exit18
  %45 = load i32, ptr %4, align 4, !tbaa !8
  %46 = icmp sgt i32 %45, 1
  br i1 %46, label %47, label %49, !prof !11

47:                                               ; preds = %44
  %48 = add nsw i32 %45, -1
  store i32 %48, ptr %4, align 4, !tbaa !8
  br label %lean_dec.exit

49:                                               ; preds = %44
  %.not.i25 = icmp eq i32 %45, 0
  br i1 %.not.i25, label %lean_dec.exit, label %50

50:                                               ; preds = %49
  tail call void @lean_dec_ref_cold(ptr noundef nonnull %4) #5
  br label %lean_dec.exit

lean_dec.exit:                                    ; preds = %50, %49, %47, %lean_dec.exit18
  ret ptr %14
}